target datalayout = "e-m:e-p270:32:32-p271:32:32-p272:64:64-i64:64-i128:128-f80:128-n8:16:32:64-S128"
target triple = "x86_64-unknown-linux-gnu"

@e1000x_update_rx_total_stats.PRCregs = internal constant [6 x i32] [i32 4119, i32 4120, i32 4121, i32 4122, i32 4123, i32 4124], align 16

; Function Attrs: nounwind sspstrong uwtable
define internal void @e1000x_grow_8reg_if_not_full(ptr noundef %mac, i32 noundef %index, i32 noundef %size) #0 {
entry:
  %mac.addr = alloca ptr, align 8
  %index.addr = alloca i32, align 4
  %size.addr = alloca i32, align 4
  %sum = alloca i64, align 8
  store ptr %mac, ptr %mac.addr, align 8
  store i32 %index, ptr %index.addr, align 4
  store i32 %size, ptr %size.addr, align 4
  %0 = load ptr, ptr %mac.addr, align 8
  %1 = load i32, ptr %index.addr, align 4
  %idxprom = sext i32 %1 to i64
  %arrayidx = getelementptr i32, ptr %0, i64 %idxprom
  %2 = load i32, ptr %arrayidx, align 4
  %conv = zext i32 %2 to i64
  %3 = load ptr, ptr %mac.addr, align 8
  %4 = load i32, ptr %index.addr, align 4
  %add = add i32 %4, 1
  %idxprom1 = sext i32 %add to i64
  %arrayidx2 = getelementptr i32, ptr %3, i64 %idxprom1
  %5 = load i32, ptr %arrayidx2, align 4
  %conv3 = zext i32 %5 to i64
  %shl = shl i64 %conv3, 32
  %or = or i64 %conv, %shl
  store i64 %or, ptr %sum, align 8
  %6 = load i64, ptr %sum, align 8
  %7 = load i32, ptr %size.addr, align 4
  %conv4 = sext i32 %7 to i64
  %add5 = add i64 %6, %conv4
  %8 = load i64, ptr %sum, align 8
  %cmp = icmp ult i64 %add5, %8
  br i1 %cmp, label %if.then, label %if.else

if.then:                                          ; preds = %entry
  store i64 -1, ptr %sum, align 8
  br label %if.end

if.else:                                          ; preds = %entry
  %9 = load i32, ptr %size.addr, align 4
  %conv7 = sext i32 %9 to i64
  %10 = load i64, ptr %sum, align 8
  %add8 = add i64 %10, %conv7
  store i64 %add8, ptr %sum, align 8
  br label %if.end

if.end:                                           ; preds = %if.else, %if.then
  %11 = load i64, ptr %sum, align 8
  %conv9 = trunc i64 %11 to i32
  %12 = load ptr, ptr %mac.addr, align 8
  %13 = load i32, ptr %index.addr, align 4
  %idxprom10 = sext i32 %13 to i64
  %arrayidx11 = getelementptr i32, ptr %12, i64 %idxprom10
  store i32 %conv9, ptr %arrayidx11, align 4
  %14 = load i64, ptr %sum, align 8
  %shr = lshr i64 %14, 32
  %conv12 = trunc i64 %shr to i32
  %15 = load ptr, ptr %mac.addr, align 8
  %16 = load i32, ptr %index.addr, align 4
  %add13 = add i32 %16, 1
  %idxprom14 = sext i32 %add13 to i64
  %arrayidx15 = getelementptr i32, ptr %15, i64 %idxprom14
  store i32 %conv12, ptr %arrayidx15, align 4
  ret void
}

; Function Attrs: nounwind sspstrong uwtable
define internal void @e1000x_inc_reg_if_not_full(ptr noundef %mac, i32 noundef %index) #0 {
entry:
  %mac.addr = alloca ptr, align 8
  %index.addr = alloca i32, align 4
  store ptr %mac, ptr %mac.addr, align 8
  store i32 %index, ptr %index.addr, align 4
  %0 = load ptr, ptr %mac.addr, align 8
  %1 = load i32, ptr %index.addr, align 4
  %idxprom = sext i32 %1 to i64
  %arrayidx = getelementptr i32, ptr %0, i64 %idxprom
  %2 = load i32, ptr %arrayidx, align 4
  %cmp = icmp ne i32 %2, -1
  br i1 %cmp, label %if.then, label %if.end

if.then:                                          ; preds = %entry
  %3 = load ptr, ptr %mac.addr, align 8
  %4 = load i32, ptr %index.addr, align 4
  %idxprom1 = sext i32 %4 to i64
  %arrayidx2 = getelementptr i32, ptr %3, i64 %idxprom1
  %5 = load i32, ptr %arrayidx2, align 4
  %inc = add i32 %5, 1
  store i32 %inc, ptr %arrayidx2, align 4
  br label %if.end

if.end:                                           ; preds = %if.then, %entry
  ret void
}

; Function Attrs: nounwind sspstrong uwtable
define dso_local void @e1000x_increase_size_stats(ptr noundef %mac, ptr noundef %size_regs, i32 noundef %size) #0 {
entry:
  %mac.addr = alloca ptr, align 8
  %size_regs.addr = alloca ptr, align 8
  %size.addr = alloca i32, align 4
  store ptr %mac, ptr %mac.addr, align 8
  store ptr %size_regs, ptr %size_regs.addr, align 8
  store i32 %size, ptr %size.addr, align 4
  %0 = load i32, ptr %size.addr, align 4
  %cmp = icmp sgt i32 %0, 1023
  br i1 %cmp, label %if.then, label %if.else

if.then:                                          ; preds = %entry
  %1 = load ptr, ptr %mac.addr, align 8
  %2 = load ptr, ptr %size_regs.addr, align 8
  %arrayidx = getelementptr i32, ptr %2, i64 5
  %3 = load i32, ptr %arrayidx, align 4
  call void @e1000x_inc_reg_if_not_full(ptr noundef %1, i32 noundef %3)
  br label %if.end24

if.else:                                          ; preds = %entry
  %4 = load i32, ptr %size.addr, align 4
  %cmp1 = icmp sgt i32 %4, 511
  br i1 %cmp1, label %if.then2, label %if.else4

if.then2:                                         ; preds = %if.else
  %5 = load ptr, ptr %mac.addr, align 8
  %6 = load ptr, ptr %size_regs.addr, align 8
  %arrayidx3 = getelementptr i32, ptr %6, i64 4
  %7 = load i32, ptr %arrayidx3, align 4
  call void @e1000x_inc_reg_if_not_full(ptr noundef %5, i32 noundef %7)
  br label %if.end23

if.else4:                                         ; preds = %if.else
  %8 = load i32, ptr %size.addr, align 4
  %cmp5 = icmp sgt i32 %8, 255
  br i1 %cmp5, label %if.then6, label %if.else8

if.then6:                                         ; preds = %if.else4
  %9 = load ptr, ptr %mac.addr, align 8
  %10 = load ptr, ptr %size_regs.addr, align 8
  %arrayidx7 = getelementptr i32, ptr %10, i64 3
  %11 = load i32, ptr %arrayidx7, align 4
  call void @e1000x_inc_reg_if_not_full(ptr noundef %9, i32 noundef %11)
  br label %if.end22

if.else8:                                         ; preds = %if.else4
  %12 = load i32, ptr %size.addr, align 4
  %cmp9 = icmp sgt i32 %12, 127
  br i1 %cmp9, label %if.then10, label %if.else12

if.then10:                                        ; preds = %if.else8
  %13 = load ptr, ptr %mac.addr, align 8
  %14 = load ptr, ptr %size_regs.addr, align 8
  %arrayidx11 = getelementptr i32, ptr %14, i64 2
  %15 = load i32, ptr %arrayidx11, align 4
  call void @e1000x_inc_reg_if_not_full(ptr noundef %13, i32 noundef %15)
  br label %if.end21

if.else12:                                        ; preds = %if.else8
  %16 = load i32, ptr %size.addr, align 4
  %cmp13 = icmp sgt i32 %16, 64
  br i1 %cmp13, label %if.then14, label %if.else16

if.then14:                                        ; preds = %if.else12
  %17 = load ptr, ptr %mac.addr, align 8
  %18 = load ptr, ptr %size_regs.addr, align 8
  %arrayidx15 = getelementptr i32, ptr %18, i64 1
  %19 = load i32, ptr %arrayidx15, align 4
  call void @e1000x_inc_reg_if_not_full(ptr noundef %17, i32 noundef %19)
  br label %if.end20

if.else16:                                        ; preds = %if.else12
  %20 = load i32, ptr %size.addr, align 4
  %cmp17 = icmp eq i32 %20, 64
  br i1 %cmp17, label %if.then18, label %if.end

if.then18:                                        ; preds = %if.else16
  %21 = load ptr, ptr %mac.addr, align 8
  %22 = load ptr, ptr %size_regs.addr, align 8
  %arrayidx19 = getelementptr i32, ptr %22, i64 0
  %23 = load i32, ptr %arrayidx19, align 4
  call void @e1000x_inc_reg_if_not_full(ptr noundef %21, i32 noundef %23)
  br label %if.end

if.end:                                           ; preds = %if.then18, %if.else16
  br label %if.end20

if.end20:                                         ; preds = %if.end, %if.then14
  br label %if.end21

if.end21:                                         ; preds = %if.end20, %if.then10
  br label %if.end22

if.end22:                                         ; preds = %if.end21, %if.then6
  br label %if.end23

if.end23:                                         ; preds = %if.end22, %if.then2
  br label %if.end24

if.end24:                                         ; preds = %if.end23, %if.then
  ret void
}

; Function Attrs: nounwind sspstrong uwtable
define dso_local void @e1000x_update_rx_total_stats(ptr noundef %mac, i32 noundef %pkt_type, i64 noundef %pkt_size, i64 noundef %pkt_fcs_size) #0 {
entry:
  %mac.addr = alloca ptr, align 8
  %pkt_type.addr = alloca i32, align 4
  %pkt_size.addr = alloca i64, align 8
  %pkt_fcs_size.addr = alloca i64, align 8
  store ptr %mac, ptr %mac.addr, align 8
  store i32 %pkt_type, ptr %pkt_type.addr, align 4
  store i64 %pkt_size, ptr %pkt_size.addr, align 8
  store i64 %pkt_fcs_size, ptr %pkt_fcs_size.addr, align 8
  %0 = load ptr, ptr %mac.addr, align 8
  %1 = load i64, ptr %pkt_fcs_size.addr, align 8
  %conv = trunc i64 %1 to i32
  call void @e1000x_increase_size_stats(ptr noundef %0, ptr noundef @e1000x_update_rx_total_stats.PRCregs, i32 noundef %conv)
  %2 = load ptr, ptr %mac.addr, align 8
  call void @e1000x_inc_reg_if_not_full(ptr noundef %2, i32 noundef 4148)
  %3 = load ptr, ptr %mac.addr, align 8
  call void @e1000x_inc_reg_if_not_full(ptr noundef %3, i32 noundef 4125)
  %4 = load ptr, ptr %mac.addr, align 8
  %5 = load i64, ptr %pkt_size.addr, align 8
  %add = add i64 %5, 4
  %conv1 = trunc i64 %add to i32
  call void @e1000x_grow_8reg_if_not_full(ptr noundef %4, i32 noundef 4144, i32 noundef %conv1)
  %6 = load ptr, ptr %mac.addr, align 8
  %7 = load i64, ptr %pkt_size.addr, align 8
  %add2 = add i64 %7, 4
  %conv3 = trunc i64 %add2 to i32
  call void @e1000x_grow_8reg_if_not_full(ptr noundef %6, i32 noundef 4130, i32 noundef %conv3)
  %8 = load i32, ptr %pkt_type.addr, align 4
  switch i32 %8, label %sw.default [
    i32 -1430533119, label %sw.bb
    i32 -1430533118, label %sw.bb4
  ]

sw.bb:                                            ; preds = %entry
  %9 = load ptr, ptr %mac.addr, align 8
  call void @e1000x_inc_reg_if_not_full(ptr noundef %9, i32 noundef 4126)
  br label %sw.epilog

sw.bb4:                                           ; preds = %entry
  %10 = load ptr, ptr %mac.addr, align 8
  call void @e1000x_inc_reg_if_not_full(ptr noundef %10, i32 noundef 4127)
  br label %sw.epilog

sw.default:                                       ; preds = %entry
  br label %sw.epilog

sw.epilog:                                        ; preds = %sw.default, %sw.bb4, %sw.bb
  ret void
}