; Function Attrs: mustprogress nofree norecurse nosync nounwind sspstrong willreturn memory(argmem: readwrite) uwtable
define dso_local void @e1000x_update_rx_total_stats(ptr noundef captures(none) %mac, i32 noundef %pkt_type, i64 noundef %pkt_size, i64 noundef %pkt_fcs_size) local_unnamed_addr #5 {
entry:
  %conv = trunc i64 %pkt_fcs_size to i32
  %cmp.i = icmp sgt i32 %conv, 1023
  br i1 %cmp.i, label %if.then.i, label %if.else.i

if.then.i:                                        ; preds = %entry
  %arrayidx.i.i = getelementptr i8, ptr %mac, i64 16496
  %0 = load i32, ptr %arrayidx.i.i, align 4
  %cmp.not.i.i = icmp eq i32 %0, -1
  br i1 %cmp.not.i.i, label %e1000x_increase_size_stats.exit, label %if.then.i.i

if.then.i.i:                                      ; preds = %if.then.i
  %inc.i.i = add nuw i32 %0, 1
  store i32 %inc.i.i, ptr %arrayidx.i.i, align 4
  br label %e1000x_increase_size_stats.exit

if.else.i:                                        ; preds = %entry
  %cmp1.i = icmp sgt i32 %conv, 511
  br i1 %cmp1.i, label %if.then2.i, label %if.else4.i

if.then2.i:                                       ; preds = %if.else.i
  %arrayidx.i17.i = getelementptr i8, ptr %mac, i64 16492
  %1 = load i32, ptr %arrayidx.i17.i, align 4
  %cmp.not.i18.i = icmp eq i32 %1, -1
  br i1 %cmp.not.i18.i, label %e1000x_increase_size_stats.exit, label %if.then.i19.i

if.then.i19.i:                                    ; preds = %if.then2.i
  %inc.i20.i = add nuw i32 %1, 1
  store i32 %inc.i20.i, ptr %arrayidx.i17.i, align 4
  br label %e1000x_increase_size_stats.exit

if.else4.i:                                       ; preds = %if.else.i
  %cmp5.i = icmp sgt i32 %conv, 255
  br i1 %cmp5.i, label %if.then6.i, label %if.else8.i

if.then6.i:                                       ; preds = %if.else4.i
  %arrayidx.i23.i = getelementptr i8, ptr %mac, i64 16488
  %2 = load i32, ptr %arrayidx.i23.i, align 4
  %cmp.not.i24.i = icmp eq i32 %2, -1
  br i1 %cmp.not.i24.i, label %e1000x_increase_size_stats.exit, label %if.then.i25.i

if.then.i25.i:                                    ; preds = %if.then6.i
  %inc.i26.i = add nuw i32 %2, 1
  store i32 %inc.i26.i, ptr %arrayidx.i23.i, align 4
  br label %e1000x_increase_size_stats.exit

if.else8.i:                                       ; preds = %if.else4.i
  %cmp9.i = icmp sgt i32 %conv, 127
  br i1 %cmp9.i, label %if.then10.i, label %if.else12.i

if.then10.i:                                      ; preds = %if.else8.i
  %arrayidx.i29.i = getelementptr i8, ptr %mac, i64 16484
  %3 = load i32, ptr %arrayidx.i29.i, align 4
  %cmp.not.i30.i = icmp eq i32 %3, -1
  br i1 %cmp.not.i30.i, label %e1000x_increase_size_stats.exit, label %if.then.i31.i

if.then.i31.i:                                    ; preds = %if.then10.i
  %inc.i32.i = add nuw i32 %3, 1
  store i32 %inc.i32.i, ptr %arrayidx.i29.i, align 4
  br label %e1000x_increase_size_stats.exit

if.else12.i:                                      ; preds = %if.else8.i
  %cmp13.i = icmp sgt i32 %conv, 64
  br i1 %cmp13.i, label %if.then14.i, label %if.else16.i

if.then14.i:                                      ; preds = %if.else12.i
  %arrayidx.i35.i = getelementptr i8, ptr %mac, i64 16480
  %4 = load i32, ptr %arrayidx.i35.i, align 4
  %cmp.not.i36.i = icmp eq i32 %4, -1
  br i1 %cmp.not.i36.i, label %e1000x_increase_size_stats.exit, label %if.then.i37.i

if.then.i37.i:                                    ; preds = %if.then14.i
  %inc.i38.i = add nuw i32 %4, 1
  store i32 %inc.i38.i, ptr %arrayidx.i35.i, align 4
  br label %e1000x_increase_size_stats.exit

if.else16.i:                                      ; preds = %if.else12.i
  %cmp17.i = icmp eq i32 %conv, 64
  br i1 %cmp17.i, label %if.then18.i, label %e1000x_increase_size_stats.exit

if.then18.i:                                      ; preds = %if.else16.i
  %arrayidx.i41.i = getelementptr i8, ptr %mac, i64 16476
  %5 = load i32, ptr %arrayidx.i41.i, align 4
  %cmp.not.i42.i = icmp eq i32 %5, -1
  br i1 %cmp.not.i42.i, label %e1000x_increase_size_stats.exit, label %if.then.i43.i

if.then.i43.i:                                    ; preds = %if.then18.i
  %inc.i44.i = add nuw i32 %5, 1
  store i32 %inc.i44.i, ptr %arrayidx.i41.i, align 4
  br label %e1000x_increase_size_stats.exit

e1000x_increase_size_stats.exit:                  ; preds = %if.then.i, %if.then.i.i, %if.then2.i, %if.then.i19.i, %if.then6.i, %if.then.i25.i, %if.then10.i, %if.then.i31.i, %if.then14.i, %if.then.i37.i, %if.else16.i, %if.then18.i, %if.then.i43.i
  %arrayidx.i = getelementptr i8, ptr %mac, i64 16592
  %6 = load i32, ptr %arrayidx.i, align 4
  %cmp.not.i = icmp eq i32 %6, -1
  br i1 %cmp.not.i, label %e1000x_inc_reg_if_not_full.exit, label %if.then.i8

if.then.i8:                                       ; preds = %e1000x_increase_size_stats.exit
  %inc.i = add nuw i32 %6, 1
  store i32 %inc.i, ptr %arrayidx.i, align 4
  br label %e1000x_inc_reg_if_not_full.exit

e1000x_inc_reg_if_not_full.exit:                  ; preds = %e1000x_increase_size_stats.exit, %if.then.i8
  %arrayidx.i9 = getelementptr i8, ptr %mac, i64 16500
  %7 = load i32, ptr %arrayidx.i9, align 4
  %cmp.not.i10 = icmp eq i32 %7, -1
  br i1 %cmp.not.i10, label %e1000x_inc_reg_if_not_full.exit13, label %if.then.i11

if.then.i11:                                      ; preds = %e1000x_inc_reg_if_not_full.exit
  %inc.i12 = add nuw i32 %7, 1
  store i32 %inc.i12, ptr %arrayidx.i9, align 4
  br label %e1000x_inc_reg_if_not_full.exit13

e1000x_inc_reg_if_not_full.exit13:                ; preds = %e1000x_inc_reg_if_not_full.exit, %if.then.i11
  %arrayidx.i14 = getelementptr i8, ptr %mac, i64 16576
  %8 = load i64, ptr %arrayidx.i14, align 4
  %arrayidx2.i = getelementptr i8, ptr %mac, i64 16580
  %conv1 = shl i64 %pkt_size, 32
  %sext = add i64 %conv1, 17179869184
  %conv4.i = ashr exact i64 %sext, 32
  %.add5.i = tail call i64 @llvm.uadd.sat.i64(i64 %8, i64 %conv4.i)
  %conv9.i = trunc i64 %.add5.i to i32
  store i32 %conv9.i, ptr %arrayidx.i14, align 4
  %shr.i = lshr i64 %.add5.i, 32
  %conv12.i = trunc nuw i64 %shr.i to i32
  store i32 %conv12.i, ptr %arrayidx2.i, align 4
  %arrayidx.i15 = getelementptr i8, ptr %mac, i64 16520
  %9 = load i64, ptr %arrayidx.i15, align 4
  %arrayidx2.i16 = getelementptr i8, ptr %mac, i64 16524
  %.add5.i18 = tail call i64 @llvm.uadd.sat.i64(i64 %9, i64 %conv4.i)
  %conv9.i19 = trunc i64 %.add5.i18 to i32
  store i32 %conv9.i19, ptr %arrayidx.i15, align 4
  %shr.i20 = lshr i64 %.add5.i18, 32
  %conv12.i21 = trunc nuw i64 %shr.i20 to i32
  store i32 %conv12.i21, ptr %arrayidx2.i16, align 4
  switch i32 %pkt_type, label %sw.epilog [
    i32 -1430533119, label %sw.bb
    i32 -1430533118, label %sw.bb4
  ]

sw.bb:                                            ; preds = %e1000x_inc_reg_if_not_full.exit13
  %arrayidx.i22 = getelementptr i8, ptr %mac, i64 16504
  %10 = load i32, ptr %arrayidx.i22, align 4
  %cmp.not.i23 = icmp eq i32 %10, -1
  br i1 %cmp.not.i23, label %sw.epilog, label %if.then.i24

if.then.i24:                                      ; preds = %sw.bb
  %inc.i25 = add nuw i32 %10, 1
  store i32 %inc.i25, ptr %arrayidx.i22, align 4
  br label %sw.epilog

sw.bb4:                                           ; preds = %e1000x_inc_reg_if_not_full.exit13
  %arrayidx.i27 = getelementptr i8, ptr %mac, i64 16508
  %11 = load i32, ptr %arrayidx.i27, align 4
  %cmp.not.i28 = icmp eq i32 %11, -1
  br i1 %cmp.not.i28, label %sw.epilog, label %if.then.i29

if.then.i29:                                      ; preds = %sw.bb4
  %inc.i30 = add nuw i32 %11, 1
  store i32 %inc.i30, ptr %arrayidx.i27, align 4
  br label %sw.epilog

sw.epilog:                                        ; preds = %if.then.i29, %sw.bb4, %if.then.i24, %sw.bb, %e1000x_inc_reg_if_not_full.exit13
  ret void
}